target datalayout = "e-m:e-p270:32:32-p271:32:32-p272:64:64-i64:64-i128:128-f80:128-n8:16:32:64-S128"
target triple = "x86_64-pc-linux-gnu"

%"class.tbb::detail::d1::unique_scoped_lock" = type { ptr }
%struct._tcm_permit_flags_t = type { i32 }
%"class.tbb::detail::r1::tcm_client" = type { %"class.tbb::detail::r1::pm_client", %struct._tcm_cpu_constraints_t, %struct._tcm_permit_request_t, ptr, %"class.tbb::detail::d1::mutex", ptr }
%"class.tbb::detail::r1::pm_client" = type { ptr, ptr, i32, i32 }
%struct._tcm_cpu_constraints_t = type { i32, i32, ptr, i32, i32, i32 }
%struct._tcm_permit_request_t = type { i32, i32, ptr, i32, i32, %struct._tcm_permit_flags_t, [4 x i8] }
%"class.tbb::detail::d1::mutex" = type { %"class.tbb::detail::d1::waitable_atomic" }
%"class.tbb::detail::d1::waitable_atomic" = type { %"struct.std::atomic" }
%"struct.std::atomic" = type { %"struct.std::__atomic_base" }
%"struct.std::__atomic_base" = type { i8 }
%"class.std::unique_ptr" = type { %"struct.std::__uniq_ptr_data" }
%"struct.std::__uniq_ptr_data" = type { %"class.std::__uniq_ptr_impl" }
%"class.std::__uniq_ptr_impl" = type { %"class.std::tuple" }
%"class.std::tuple" = type { %"struct.std::_Tuple_impl" }
%"struct.std::_Tuple_impl" = type { %"struct.std::_Head_base.1" }
%"struct.std::_Head_base.1" = type { ptr }
%"class.tbb::detail::r1::tcm_adaptor" = type { %"class.tbb::detail::r1::permit_manager", %"class.std::unique_ptr" }
%"class.tbb::detail::r1::permit_manager" = type { ptr, ptr }
%"struct.tbb::detail::r1::tcm_adaptor_impl" = type { %"class.tbb::detail::d1::mutex", i64 }
%"struct.std::pair" = type { i32, i32 }

@_ZN3tbb6detail2r112_GLOBAL__N_118tcm_request_permitE = internal global ptr null, align 8
@_ZN3tbb6detail2r112_GLOBAL__N_121tcm_deactivate_permitE = internal global ptr null, align 8

; Function Attrs: mustprogress nounwind sspstrong uwtable
define linkonce_odr noundef nonnull align 8 dereferenceable(8) ptr @_ZNSt10_Head_baseILm0EPN3tbb6detail2r116tcm_adaptor_implELb0EE7_M_headERKS5_(ptr noundef nonnull align 8 dereferenceable(8) %0) #5 comdat align 2 {
  %2 = alloca ptr, align 8
  store ptr %0, ptr %2, align 8, !tbaa !120
  %3 = load ptr, ptr %2, align 8, !tbaa !120
  %4 = getelementptr inbounds nuw %"struct.std::_Head_base.1", ptr %3, i32 0, i32 0
  ret ptr %4
}

; Function Attrs: mustprogress nounwind sspstrong uwtable
define linkonce_odr noundef nonnull align 8 dereferenceable(8) ptr @_ZNSt11_Tuple_implILm0EJPN3tbb6detail2r116tcm_adaptor_implENS2_21cache_aligned_deleterEEE7_M_headERKS6_(ptr noundef nonnull align 8 dereferenceable(8) %0) #5 comdat align 2 {
  %2 = alloca ptr, align 8
  store ptr %0, ptr %2, align 8, !tbaa !116
  %3 = load ptr, ptr %2, align 8, !tbaa !116
  %4 = call noundef nonnull align 8 dereferenceable(8) ptr @_ZNSt10_Head_baseILm0EPN3tbb6detail2r116tcm_adaptor_implELb0EE7_M_headERKS5_(ptr noundef nonnull align 8 dereferenceable(8) %3) #3
  ret ptr %4
}

; Function Attrs: mustprogress nounwind sspstrong uwtable
define linkonce_odr noundef nonnull align 8 dereferenceable(8) ptr @_ZSt12__get_helperILm0EPN3tbb6detail2r116tcm_adaptor_implEJNS2_21cache_aligned_deleterEEERKT0_RKSt11_Tuple_implIXT_EJS6_DpT1_EE(ptr noundef nonnull align 8 dereferenceable(8) %0) #5 comdat {
  %2 = alloca ptr, align 8
  store ptr %0, ptr %2, align 8, !tbaa !116
  %3 = load ptr, ptr %2, align 8, !tbaa !116
  %4 = call noundef nonnull align 8 dereferenceable(8) ptr @_ZNSt11_Tuple_implILm0EJPN3tbb6detail2r116tcm_adaptor_implENS2_21cache_aligned_deleterEEE7_M_headERKS6_(ptr noundef nonnull align 8 dereferenceable(8) %3) #3
  ret ptr %4
}

; Function Attrs: mustprogress nounwind sspstrong uwtable
define linkonce_odr noundef nonnull align 8 dereferenceable(8) ptr @_ZSt3getILm0EJPN3tbb6detail2r116tcm_adaptor_implENS2_21cache_aligned_deleterEEERKNSt13tuple_elementIXT_ESt5tupleIJDpT0_EEE4typeERKSA_(ptr noundef nonnull align 8 dereferenceable(8) %0) #5 comdat {
  %2 = alloca ptr, align 8
  store ptr %0, ptr %2, align 8, !tbaa !114
  %3 = load ptr, ptr %2, align 8, !tbaa !114
  %4 = call noundef nonnull align 8 dereferenceable(8) ptr @_ZSt12__get_helperILm0EPN3tbb6detail2r116tcm_adaptor_implEJNS2_21cache_aligned_deleterEEERKT0_RKSt11_Tuple_implIXT_EJS6_DpT1_EE(ptr noundef nonnull align 8 dereferenceable(8) %3) #3
  ret ptr %4
}

; Function Attrs: mustprogress nounwind sspstrong uwtable
define linkonce_odr noundef ptr @_ZNKSt15__uniq_ptr_implIN3tbb6detail2r116tcm_adaptor_implENS2_21cache_aligned_deleterEE6_M_ptrEv(ptr noundef nonnull align 8 dereferenceable(8) %0) #5 comdat align 2 {
  %2 = alloca ptr, align 8
  store ptr %0, ptr %2, align 8, !tbaa !112
  %3 = load ptr, ptr %2, align 8
  %4 = getelementptr inbounds nuw %"class.std::__uniq_ptr_impl", ptr %3, i32 0, i32 0
  %5 = call noundef nonnull align 8 dereferenceable(8) ptr @_ZSt3getILm0EJPN3tbb6detail2r116tcm_adaptor_implENS2_21cache_aligned_deleterEEERKNSt13tuple_elementIXT_ESt5tupleIJDpT0_EEE4typeERKSA_(ptr noundef nonnull align 8 dereferenceable(8) %4) #3
  %6 = load ptr, ptr %5, align 8, !tbaa !60
  ret ptr %6
}

; Function Attrs: mustprogress nounwind sspstrong uwtable
define linkonce_odr noundef i32 @_ZNK3tbb6detail2r19pm_client11min_workersEv(ptr noundef nonnull align 8 dereferenceable(24) %0) #5 comdat align 2 {
  %2 = alloca ptr, align 8
  store ptr %0, ptr %2, align 8, !tbaa !79
  %3 = load ptr, ptr %2, align 8
  %4 = getelementptr inbounds nuw %"class.tbb::detail::r1::pm_client", ptr %3, i32 0, i32 2
  %5 = load i32, ptr %4, align 8, !tbaa !128
  ret i32 %5
}

; Function Attrs: mustprogress nounwind sspstrong uwtable
define linkonce_odr void @_ZN3tbb6detail2r19pm_client11set_workersEii(ptr noundef nonnull align 8 dereferenceable(24) %0, i32 noundef %1, i32 noundef %2) #5 comdat align 2 {
  %4 = alloca ptr, align 8
  %5 = alloca i32, align 4
  %6 = alloca i32, align 4
  store ptr %0, ptr %4, align 8, !tbaa !79
  store i32 %1, ptr %5, align 4, !tbaa !11
  store i32 %2, ptr %6, align 4, !tbaa !11
  %7 = load ptr, ptr %4, align 8
  %8 = load i32, ptr %5, align 4, !tbaa !11
  %9 = getelementptr inbounds nuw %"class.tbb::detail::r1::pm_client", ptr %7, i32 0, i32 2
  store i32 %8, ptr %9, align 8, !tbaa !128
  %10 = load i32, ptr %6, align 4, !tbaa !11
  %11 = getelementptr inbounds nuw %"class.tbb::detail::r1::pm_client", ptr %7, i32 0, i32 3
  store i32 %10, ptr %11, align 4, !tbaa !108
  ret void
}

; Function Attrs: mustprogress nounwind sspstrong uwtable
define linkonce_odr noundef ptr @_ZNKSt10unique_ptrIN3tbb6detail2r116tcm_adaptor_implENS2_21cache_aligned_deleterEE3getEv(ptr noundef nonnull align 8 dereferenceable(8) %0) #5 comdat align 2 {
  %2 = alloca ptr, align 8
  store ptr %0, ptr %2, align 8, !tbaa !54
  %3 = load ptr, ptr %2, align 8
  %4 = getelementptr inbounds nuw %"class.std::unique_ptr", ptr %3, i32 0, i32 0
  %5 = call noundef ptr @_ZNKSt15__uniq_ptr_implIN3tbb6detail2r116tcm_adaptor_implENS2_21cache_aligned_deleterEE6_M_ptrEv(ptr noundef nonnull align 8 dereferenceable(8) %4) #3
  ret ptr %5
}

; Function Attrs: mustprogress sspstrong uwtable
define linkonce_odr void @_ZN3tbb6detail2r110tcm_client14request_permitEm(ptr noundef nonnull align 8 dereferenceable(112) %0, i64 noundef %1) #4 comdat align 2 {
  %3 = alloca ptr, align 8
  %4 = alloca i64, align 8
  %5 = alloca i32, align 4
  %6 = alloca %struct._tcm_permit_request_t, align 8
  store ptr %0, ptr %3, align 8, !tbaa !9
  store i64 %1, ptr %4, align 8, !tbaa !47
  %7 = load ptr, ptr %3, align 8
  %8 = call noundef i32 @_ZNK3tbb6detail2r19pm_client11max_workersEv(ptr noundef nonnull align 8 dereferenceable(24) %7)
  %9 = getelementptr inbounds nuw %"class.tbb::detail::r1::tcm_client", ptr %7, i32 0, i32 2
  %10 = getelementptr inbounds nuw %struct._tcm_permit_request_t, ptr %9, i32 0, i32 1
  store i32 %8, ptr %10, align 4, !tbaa !96
  %11 = getelementptr inbounds nuw %"class.tbb::detail::r1::tcm_client", ptr %7, i32 0, i32 2
  %12 = getelementptr inbounds nuw %struct._tcm_permit_request_t, ptr %11, i32 0, i32 1
  %13 = load i32, ptr %12, align 4, !tbaa !96
  %14 = icmp eq i32 %13, 0
  br i1 %14, label %15, label %16

15:                                               ; preds = %2
  br label %18

16:                                               ; preds = %2
  %17 = call noundef i32 @_ZNK3tbb6detail2r19pm_client11min_workersEv(ptr noundef nonnull align 8 dereferenceable(24) %7)
  br label %18

18:                                               ; preds = %16, %15
  %19 = phi i32 [ 0, %15 ], [ %17, %16 ]
  %20 = getelementptr inbounds nuw %"class.tbb::detail::r1::tcm_client", ptr %7, i32 0, i32 2
  %21 = getelementptr inbounds nuw %struct._tcm_permit_request_t, ptr %20, i32 0, i32 0
  store i32 %19, ptr %21, align 8, !tbaa !95
  %22 = getelementptr inbounds nuw %"class.tbb::detail::r1::tcm_client", ptr %7, i32 0, i32 2
  %23 = getelementptr inbounds nuw %struct._tcm_permit_request_t, ptr %22, i32 0, i32 3
  %24 = load i32, ptr %23, align 8, !tbaa !94
  %25 = icmp ugt i32 %24, 0
  br i1 %25, label %26, label %41

26:                                               ; preds = %18
  %27 = getelementptr inbounds nuw %"class.tbb::detail::r1::tcm_client", ptr %7, i32 0, i32 2
  %28 = getelementptr inbounds nuw %struct._tcm_permit_request_t, ptr %27, i32 0, i32 0
  %29 = load i32, ptr %28, align 8, !tbaa !95
  %30 = getelementptr inbounds nuw %"class.tbb::detail::r1::tcm_client", ptr %7, i32 0, i32 2
  %31 = getelementptr inbounds nuw %struct._tcm_permit_request_t, ptr %30, i32 0, i32 2
  %32 = load ptr, ptr %31, align 8, !tbaa !93
  %33 = getelementptr inbounds nuw %struct._tcm_cpu_constraints_t, ptr %32, i32 0, i32 0
  store i32 %29, ptr %33, align 8, !tbaa !67
  %34 = getelementptr inbounds nuw %"class.tbb::detail::r1::tcm_client", ptr %7, i32 0, i32 2
  %35 = getelementptr inbounds nuw %struct._tcm_permit_request_t, ptr %34, i32 0, i32 1
  %36 = load i32, ptr %35, align 4, !tbaa !96
  %37 = getelementptr inbounds nuw %"class.tbb::detail::r1::tcm_client", ptr %7, i32 0, i32 2
  %38 = getelementptr inbounds nuw %struct._tcm_permit_request_t, ptr %37, i32 0, i32 2
  %39 = load ptr, ptr %38, align 8, !tbaa !93
  %40 = getelementptr inbounds nuw %struct._tcm_cpu_constraints_t, ptr %39, i32 0, i32 1
  store i32 %36, ptr %40, align 4, !tbaa !68
  br label %41

41:                                               ; preds = %26, %18
  call void @llvm.lifetime.start.p0(i64 4, ptr %5) #3
  %42 = load ptr, ptr @_ZN3tbb6detail2r112_GLOBAL__N_118tcm_request_permitE, align 8, !tbaa !8
  %43 = load i64, ptr %4, align 8, !tbaa !47
  %44 = getelementptr inbounds nuw %"class.tbb::detail::r1::tcm_client", ptr %7, i32 0, i32 2
  call void @llvm.memcpy.p0.p0.i64(ptr align 8 %6, ptr align 8 %44, i64 32, i1 false), !tbaa.struct !97
  %45 = getelementptr inbounds nuw %"class.tbb::detail::r1::tcm_client", ptr %7, i32 0, i32 3
  %46 = call noundef i32 %42(i64 noundef %43, ptr noundef byval(%struct._tcm_permit_request_t) align 8 %6, ptr noundef %7, ptr noundef %45, ptr noundef null)
  store i32 %46, ptr %5, align 4, !tbaa !36
  call void @llvm.lifetime.end.p0(i64 4, ptr %5) #3
  ret void
}

; Function Attrs: mustprogress sspstrong uwtable
define linkonce_odr void @_ZN3tbb6detail2r110tcm_client17deactivate_permitEv(ptr noundef nonnull align 8 dereferenceable(112) %0) #4 comdat align 2 {
  %2 = alloca ptr, align 8
  %3 = alloca i32, align 4
  store ptr %0, ptr %2, align 8, !tbaa !9
  %4 = load ptr, ptr %2, align 8
  call void @llvm.lifetime.start.p0(i64 4, ptr %3) #3
  %5 = load ptr, ptr @_ZN3tbb6detail2r112_GLOBAL__N_121tcm_deactivate_permitE, align 8, !tbaa !8
  %6 = getelementptr inbounds nuw %"class.tbb::detail::r1::tcm_client", ptr %4, i32 0, i32 3
  %7 = load ptr, ptr %6, align 8, !tbaa !22
  %8 = call noundef i32 %5(ptr noundef %7)
  store i32 %8, ptr %3, align 4, !tbaa !36
  call void @llvm.lifetime.end.p0(i64 4, ptr %3) #3
  ret void
}

; Function Attrs: mustprogress nounwind sspstrong uwtable
define linkonce_odr noundef i32 @_ZNK3tbb6detail2r19pm_client11max_workersEv(ptr noundef nonnull align 8 dereferenceable(24) %0) #5 comdat align 2 {
  %2 = alloca ptr, align 8
  store ptr %0, ptr %2, align 8, !tbaa !79
  %3 = load ptr, ptr %2, align 8
  %4 = getelementptr inbounds nuw %"class.tbb::detail::r1::pm_client", ptr %3, i32 0, i32 3
  %5 = load i32, ptr %4, align 4, !tbaa !108
  ret i32 %5
}

; Function Attrs: mustprogress sspstrong uwtable
define linkonce_odr noundef i32 @_ZN3tbb6detail2r19pm_client14update_requestEii(ptr noundef nonnull align 8 dereferenceable(24) %0, i32 noundef %1, i32 noundef %2) #4 comdat align 2 {
  %4 = alloca ptr, align 8
  %5 = alloca i32, align 4
  %6 = alloca i32, align 4
  %7 = alloca %"struct.std::pair", align 4
  %8 = alloca i32, align 4
  store ptr %0, ptr %4, align 8, !tbaa !79
  store i32 %1, ptr %5, align 4, !tbaa !11
  store i32 %2, ptr %6, align 4, !tbaa !11
  %9 = load ptr, ptr %4, align 8
  call void @llvm.lifetime.start.p0(i64 8, ptr %7) #3
  %10 = getelementptr inbounds nuw %"class.tbb::detail::r1::pm_client", ptr %9, i32 0, i32 1
  %11 = load ptr, ptr %10, align 8, !tbaa !105
  %12 = load i32, ptr %5, align 4, !tbaa !11
  %13 = load i32, ptr %6, align 4, !tbaa !11
  %14 = call i64 @_ZN3tbb6detail2r15arena14update_requestEii(ptr noundef nonnull align 128 dereferenceable(768) %11, i32 noundef %12, i32 noundef %13)
  store i64 %14, ptr %7, align 4
  call void @llvm.lifetime.start.p0(i64 4, ptr %8) #3
  %15 = getelementptr inbounds nuw %"struct.std::pair", ptr %7, i32 0, i32 1
  %16 = load i32, ptr %15, align 4, !tbaa !106
  %17 = getelementptr inbounds nuw %"class.tbb::detail::r1::pm_client", ptr %9, i32 0, i32 3
  %18 = load i32, ptr %17, align 4, !tbaa !108
  %19 = sub nsw i32 %16, %18
  store i32 %19, ptr %8, align 4, !tbaa !11
  %20 = getelementptr inbounds nuw %"struct.std::pair", ptr %7, i32 0, i32 0
  %21 = load i32, ptr %20, align 4, !tbaa !109
  %22 = getelementptr inbounds nuw %"struct.std::pair", ptr %7, i32 0, i32 1
  %23 = load i32, ptr %22, align 4, !tbaa !106
  call void @_ZN3tbb6detail2r19pm_client11set_workersEii(ptr noundef nonnull align 8 dereferenceable(24) %9, i32 noundef %21, i32 noundef %23)
  %24 = load i32, ptr %8, align 4, !tbaa !11
  call void @llvm.lifetime.end.p0(i64 4, ptr %8) #3
  call void @llvm.lifetime.end.p0(i64 8, ptr %7) #3
  ret i32 %24
}

; Function Attrs: mustprogress sspstrong uwtable
define linkonce_odr void @_ZN3tbb6detail2d118unique_scoped_lockINS1_5mutexEEC2ERS3_(ptr noundef nonnull align 8 dereferenceable(8) %0, ptr noundef nonnull align 1 dereferenceable(1) %1) unnamed_addr #4 comdat align 2 {
  %3 = alloca ptr, align 8
  %4 = alloca ptr, align 8
  store ptr %0, ptr %3, align 8, !tbaa !99
  store ptr %1, ptr %4, align 8, !tbaa !101
  %5 = load ptr, ptr %3, align 8
  %6 = getelementptr inbounds nuw %"class.tbb::detail::d1::unique_scoped_lock", ptr %5, i32 0, i32 0
  store ptr null, ptr %6, align 8, !tbaa !103
  %7 = load ptr, ptr %4, align 8, !tbaa !101
  call void @_ZN3tbb6detail2d118unique_scoped_lockINS1_5mutexEE7acquireERS3_(ptr noundef nonnull align 8 dereferenceable(8) %5, ptr noundef nonnull align 1 dereferenceable(1) %7)
  ret void
}

; Function Attrs: mustprogress nounwind sspstrong uwtable
define linkonce_odr noundef ptr @_ZNKSt10unique_ptrIN3tbb6detail2r116tcm_adaptor_implENS2_21cache_aligned_deleterEEptEv(ptr noundef nonnull align 8 dereferenceable(8) %0) #5 comdat align 2 {
  %2 = alloca ptr, align 8
  store ptr %0, ptr %2, align 8, !tbaa !54
  %3 = load ptr, ptr %2, align 8
  %4 = call noundef ptr @_ZNKSt10unique_ptrIN3tbb6detail2r116tcm_adaptor_implENS2_21cache_aligned_deleterEE3getEv(ptr noundef nonnull align 8 dereferenceable(8) %3) #3
  ret ptr %4
}

; Function Attrs: mustprogress sspstrong uwtable
define void @_ZN3tbb6detail2r111tcm_adaptor13adjust_demandERNS1_9pm_clientEii(ptr noundef nonnull align 8 dereferenceable(24) %0, ptr noundef nonnull align 8 dereferenceable(24) %1, i32 noundef %2, i32 noundef %3) unnamed_addr #4 align 2 personality ptr @__gxx_personality_v0 {
  %5 = alloca ptr, align 8
  %6 = alloca ptr, align 8
  %7 = alloca i32, align 4
  %8 = alloca i32, align 4
  %9 = alloca ptr, align 8
  %10 = alloca %"class.tbb::detail::d1::unique_scoped_lock", align 8
  %11 = alloca ptr, align 8
  %12 = alloca i32, align 4
  %13 = alloca i32, align 4
  store ptr %0, ptr %5, align 8, !tbaa !44
  store ptr %1, ptr %6, align 8, !tbaa !79
  store i32 %2, ptr %7, align 4, !tbaa !11
  store i32 %3, ptr %8, align 4, !tbaa !11
  %14 = load ptr, ptr %5, align 8
  call void @llvm.lifetime.start.p0(i64 8, ptr %9) #3
  %15 = load ptr, ptr %6, align 8, !tbaa !79
  store ptr %15, ptr %9, align 8, !tbaa !9
  call void @llvm.lifetime.start.p0(i64 8, ptr %10) #3
  %16 = getelementptr inbounds nuw %"class.tbb::detail::r1::tcm_adaptor", ptr %14, i32 0, i32 1
  %17 = call noundef ptr @_ZNKSt10unique_ptrIN3tbb6detail2r116tcm_adaptor_implENS2_21cache_aligned_deleterEEptEv(ptr noundef nonnull align 8 dereferenceable(8) %16) #3
  %18 = getelementptr inbounds nuw %"struct.tbb::detail::r1::tcm_adaptor_impl", ptr %17, i32 0, i32 0
  call void @_ZN3tbb6detail2d118unique_scoped_lockINS1_5mutexEEC2ERS3_(ptr noundef nonnull align 8 dereferenceable(8) %10, ptr noundef nonnull align 1 dereferenceable(1) %18)
  %19 = load ptr, ptr %9, align 8, !tbaa !9
  %20 = load i32, ptr %7, align 4, !tbaa !11
  %21 = load i32, ptr %8, align 4, !tbaa !11
  %22 = invoke noundef i32 @_ZN3tbb6detail2r19pm_client14update_requestEii(ptr noundef nonnull align 8 dereferenceable(24) %19, i32 noundef %20, i32 noundef %21)
          to label %23 unwind label %27

23:                                               ; preds = %4
  store i32 %22, ptr %8, align 4, !tbaa !11
  %24 = load i32, ptr %8, align 4, !tbaa !11
  %25 = icmp eq i32 %24, 0
  br i1 %25, label %26, label %31

26:                                               ; preds = %23
  store i32 1, ptr %13, align 4
  br label %47

27:                                               ; preds = %39, %36, %31, %4
  %28 = landingpad { ptr, i32 }
          cleanup
  %29 = extractvalue { ptr, i32 } %28, 0
  store ptr %29, ptr %11, align 8
  %30 = extractvalue { ptr, i32 } %28, 1
  store i32 %30, ptr %12, align 4
  call void @_ZN3tbb6detail2d118unique_scoped_lockINS1_5mutexEED2Ev(ptr noundef nonnull align 8 dereferenceable(8) %10) #3
  call void @llvm.lifetime.end.p0(i64 8, ptr %10) #3
  call void @llvm.lifetime.end.p0(i64 8, ptr %9) #3
  br label %54

31:                                               ; preds = %23
  %32 = load ptr, ptr %9, align 8, !tbaa !9
  %33 = invoke noundef i32 @_ZNK3tbb6detail2r19pm_client11max_workersEv(ptr noundef nonnull align 8 dereferenceable(24) %32)
          to label %34 unwind label %27

34:                                               ; preds = %31
  %35 = icmp eq i32 %33, 0
  br i1 %35, label %36, label %39

36:                                               ; preds = %34
  %37 = load ptr, ptr %9, align 8, !tbaa !9
  invoke void @_ZN3tbb6detail2r110tcm_client17deactivate_permitEv(ptr noundef nonnull align 8 dereferenceable(112) %37)
          to label %38 unwind label %27

38:                                               ; preds = %36
  br label %46

39:                                               ; preds = %34
  %40 = load ptr, ptr %9, align 8, !tbaa !9
  %41 = getelementptr inbounds nuw %"class.tbb::detail::r1::tcm_adaptor", ptr %14, i32 0, i32 1
  %42 = call noundef ptr @_ZNKSt10unique_ptrIN3tbb6detail2r116tcm_adaptor_implENS2_21cache_aligned_deleterEEptEv(ptr noundef nonnull align 8 dereferenceable(8) %41) #3
  %43 = getelementptr inbounds nuw %"struct.tbb::detail::r1::tcm_adaptor_impl", ptr %42, i32 0, i32 1
  %44 = load i64, ptr %43, align 8, !tbaa !62
  invoke void @_ZN3tbb6detail2r110tcm_client14request_permitEm(ptr noundef nonnull align 8 dereferenceable(112) %40, i64 noundef %44)
          to label %45 unwind label %27

45:                                               ; preds = %39
  br label %46

46:                                               ; preds = %45, %38
  store i32 0, ptr %13, align 4
  br label %47

47:                                               ; preds = %46, %26
  call void @_ZN3tbb6detail2d118unique_scoped_lockINS1_5mutexEED2Ev(ptr noundef nonnull align 8 dereferenceable(8) %10) #3
  call void @llvm.lifetime.end.p0(i64 8, ptr %10) #3
  %48 = load i32, ptr %13, align 4
  switch i32 %48, label %51 [
    i32 0, label %49
  ]

49:                                               ; preds = %47
  %50 = load ptr, ptr %9, align 8, !tbaa !9
  call void @_ZN3tbb6detail2r110tcm_client16actualize_permitEv(ptr noundef nonnull align 8 dereferenceable(112) %50)
  store i32 0, ptr %13, align 4
  br label %51

51:                                               ; preds = %49, %47
  call void @llvm.lifetime.end.p0(i64 8, ptr %9) #3
  %52 = load i32, ptr %13, align 4
  switch i32 %52, label %59 [
    i32 0, label %53
    i32 1, label %53
  ]

53:                                               ; preds = %51, %51
  ret void

54:                                               ; preds = %27
  %55 = load ptr, ptr %11, align 8
  %56 = load i32, ptr %12, align 4
  %57 = insertvalue { ptr, i32 } poison, ptr %55, 0
  %58 = insertvalue { ptr, i32 } %57, i32 %56, 1
  resume { ptr, i32 } %58

59:                                               ; preds = %51
  unreachable
}