; Function Attrs: mustprogress sspstrong uwtable
define void @_ZN3tbb6detail2r111tcm_adaptor13adjust_demandERNS1_9pm_clientEii(ptr noundef nonnull readonly align 8 captures(none) dereferenceable(24) %0, ptr noundef nonnull align 8 dereferenceable(24) %1, i32 noundef %2, i32 noundef %3) unnamed_addr #3 align 2 personality ptr @__gxx_personality_v0 {
  %5 = alloca %"class.tbb::detail::d1::unique_scoped_lock", align 8
  call void @llvm.lifetime.start.p0(i64 8, ptr nonnull %5) #14
  %6 = getelementptr inbounds nuw i8, ptr %0, i64 16
  %7 = load ptr, ptr %6, align 8, !tbaa !59
  store ptr null, ptr %5, align 8, !tbaa !3
  call void @_ZN3tbb6detail2d118unique_scoped_lockINS1_5mutexEE7acquireERS3_(ptr noundef nonnull align 8 dereferenceable(8) %5, ptr noundef nonnull align 1 dereferenceable(1) %7)
  %8 = getelementptr inbounds nuw i8, ptr %1, i64 8
  %9 = load ptr, ptr %8, align 8, !tbaa !36
  %10 = invoke i64 @_ZN3tbb6detail2r15arena14update_requestEii(ptr noundef nonnull align 128 dereferenceable(768) %9, i32 noundef %2, i32 noundef %3)
          to label %11 unwind label %15

11:                                               ; preds = %4
  %.sroa.0.0.extract.trunc.i = trunc i64 %10 to i32
  %.sroa.4.0.extract.shift.i = lshr i64 %10, 32
  %.sroa.4.0.extract.trunc.i = trunc nuw i64 %.sroa.4.0.extract.shift.i to i32
  %12 = getelementptr inbounds nuw i8, ptr %1, i64 20
  %13 = load i32, ptr %12, align 4, !tbaa !62
  %14 = getelementptr inbounds nuw i8, ptr %1, i64 16
  store i32 %.sroa.0.0.extract.trunc.i, ptr %14, align 8, !tbaa !61
  store i32 %.sroa.4.0.extract.trunc.i, ptr %12, align 4, !tbaa !62
  %.not = icmp eq i32 %13, %.sroa.4.0.extract.trunc.i
  br i1 %.not, label %.critedge, label %17

15:                                               ; preds = %36, %19, %4
  %16 = landingpad { ptr, i32 }
          cleanup
  call void @_ZN3tbb6detail2d118unique_scoped_lockINS1_5mutexEED2Ev(ptr noundef nonnull align 8 dereferenceable(8) %5) #14
  call void @llvm.lifetime.end.p0(i64 8, ptr nonnull %5) #14
  resume { ptr, i32 } %16

17:                                               ; preds = %11
  %18 = icmp ult i64 %10, 4294967296
  br i1 %18, label %19, label %24

19:                                               ; preds = %17
  %20 = load ptr, ptr @_ZN3tbb6detail2r112_GLOBAL__N_121tcm_deactivate_permitE, align 8, !tbaa !20
  %21 = getelementptr inbounds nuw i8, ptr %1, i64 88
  %22 = load ptr, ptr %21, align 8, !tbaa !21
  %23 = invoke noundef i32 %20(ptr noundef %22)
          to label %_ZN3tbb6detail2r110tcm_client17deactivate_permitEv.exit unwind label %15

24:                                               ; preds = %17
  %25 = load ptr, ptr %6, align 8, !tbaa !59
  %26 = getelementptr inbounds nuw i8, ptr %25, i64 8
  %27 = load i64, ptr %26, align 8, !tbaa !57
  %28 = getelementptr inbounds nuw i8, ptr %1, i64 56
  %29 = getelementptr inbounds nuw i8, ptr %1, i64 60
  store i32 %.sroa.4.0.extract.trunc.i, ptr %29, align 4, !tbaa !86
  store i32 %.sroa.0.0.extract.trunc.i, ptr %28, align 8, !tbaa !85
  %30 = getelementptr inbounds nuw i8, ptr %1, i64 72
  %31 = load i32, ptr %30, align 8, !tbaa !84
  %.not.i = icmp eq i32 %31, 0
  br i1 %.not.i, label %36, label %32

32:                                               ; preds = %24
  %33 = getelementptr inbounds nuw i8, ptr %1, i64 64
  %34 = load ptr, ptr %33, align 8, !tbaa !83
  store i32 %.sroa.0.0.extract.trunc.i, ptr %34, align 8, !tbaa !63
  %35 = getelementptr inbounds nuw i8, ptr %34, i64 4
  store i32 %.sroa.4.0.extract.trunc.i, ptr %35, align 4, !tbaa !64
  br label %36

36:                                               ; preds = %32, %24
  %37 = load ptr, ptr @_ZN3tbb6detail2r112_GLOBAL__N_118tcm_request_permitE, align 8, !tbaa !20
  %38 = getelementptr inbounds nuw i8, ptr %1, i64 88
  %39 = invoke noundef i32 %37(i64 noundef %27, ptr noundef nonnull byval(%struct._tcm_permit_request_t) align 8 %28, ptr noundef nonnull align 8 dereferenceable(112) %1, ptr noundef nonnull %38, ptr noundef null)
          to label %_ZN3tbb6detail2r110tcm_client17deactivate_permitEv.exit unwind label %15

_ZN3tbb6detail2r110tcm_client17deactivate_permitEv.exit: ; preds = %36, %19
  %40 = load ptr, ptr %5, align 8, !tbaa !3
  %.not.i12 = icmp eq ptr %40, null
  br i1 %.not.i12, label %_ZN3tbb6detail2d118unique_scoped_lockINS1_5mutexEE7releaseEv.exit.i, label %41

41:                                               ; preds = %_ZN3tbb6detail2r110tcm_client17deactivate_permitEv.exit
  %42 = atomicrmw xchg ptr %40, i8 0 seq_cst, align 1
  invoke void @_ZN3tbb6detail2r121notify_by_address_oneEPv(ptr noundef nonnull align 1 dereferenceable(1) %40)
          to label %_ZN3tbb6detail2d118unique_scoped_lockINS1_5mutexEE7releaseEv.exit.i unwind label %43

43:                                               ; preds = %41
  %44 = landingpad { ptr, i32 }
          catch ptr null
  %45 = extractvalue { ptr, i32 } %44, 0
  call void @__clang_call_terminate(ptr %45) #17
  unreachable

_ZN3tbb6detail2d118unique_scoped_lockINS1_5mutexEE7releaseEv.exit.i: ; preds = %41, %_ZN3tbb6detail2r110tcm_client17deactivate_permitEv.exit
  call void @llvm.lifetime.end.p0(i64 8, ptr nonnull %5) #14
  call void @_ZN3tbb6detail2r110tcm_client16actualize_permitEv(ptr noundef nonnull align 8 dereferenceable(112) %1)
  br label %52

.critedge:                                        ; preds = %11
  %46 = load ptr, ptr %5, align 8, !tbaa !3
  %.not.i13 = icmp eq ptr %46, null
  br i1 %.not.i13, label %_ZN3tbb6detail2d118unique_scoped_lockINS1_5mutexEED2Ev.exit15, label %47

47:                                               ; preds = %.critedge
  %48 = atomicrmw xchg ptr %46, i8 0 seq_cst, align 1
  invoke void @_ZN3tbb6detail2r121notify_by_address_oneEPv(ptr noundef nonnull align 1 dereferenceable(1) %46)
          to label %_ZN3tbb6detail2d118unique_scoped_lockINS1_5mutexEED2Ev.exit15 unwind label %49

49:                                               ; preds = %47
  %50 = landingpad { ptr, i32 }
          catch ptr null
  %51 = extractvalue { ptr, i32 } %50, 0
  call void @__clang_call_terminate(ptr %51) #17
  unreachable

_ZN3tbb6detail2d118unique_scoped_lockINS1_5mutexEED2Ev.exit15: ; preds = %47, %.critedge
  call void @llvm.lifetime.end.p0(i64 8, ptr nonnull %5) #14
  br label %52

52:                                               ; preds = %_ZN3tbb6detail2d118unique_scoped_lockINS1_5mutexEED2Ev.exit15, %_ZN3tbb6detail2d118unique_scoped_lockINS1_5mutexEE7releaseEv.exit.i
  ret void
}